target datalayout = "e-m:e-p270:32:32-p271:32:32-p272:64:64-i64:64-i128:128-f80:128-n8:16:32:64-S128"
target triple = "x86_64-unknown-linux-gnu"

%class.btAlignedObjectArray = type <{ %class.btAlignedAllocator, [3 x i8], i32, i32, [4 x i8], ptr, i8, [7 x i8] }>
%class.btAlignedAllocator = type { i8 }
%struct.btDispatcherInfo = type <{ float, i32, i32, float, i8, [7 x i8], ptr, i8, i8, i8, i8, float, i8, [3 x i8], float, i8, [7 x i8] }>
%class.btVector3 = type { [4 x float] }
%class.btCollisionWorld = type <{ ptr, %class.btAlignedObjectArray, ptr, %struct.btDispatcherInfo, ptr, ptr, i8, [7 x i8] }>
%class.btTransform = type { %class.btMatrix3x3, %class.btVector3 }
%class.btMatrix3x3 = type { [3 x %class.btVector3] }
%class.btAlignedObjectArray.4 = type <{ %class.btAlignedAllocator.5, [3 x i8], i32, i32, [4 x i8], ptr, i8, [7 x i8] }>
%class.btAlignedAllocator.5 = type { i8 }
%class.btCollisionObject = type <{ ptr, %class.btTransform, %class.btTransform, %class.btVector3, %class.btVector3, %class.btVector3, i32, float, ptr, ptr, ptr, ptr, i32, i32, i32, i32, i32, float, float, float, float, float, float, float, i32, [4 x i8], ptr, i32, i32, i32, float, float, float, i32, [4 x i8], %class.btAlignedObjectArray.4, i32, %class.btVector3, [4 x i8] }>

; Function Attrs: mustprogress nounwind uwtable
define linkonce_odr dso_local noundef i32 @_ZNK17btCollisionObject18getActivationStateEv(ptr noundef nonnull align 8 dereferenceable(372) %this) #1 comdat align 2 {
entry:
  %this.addr = alloca ptr, align 8
  store ptr %this, ptr %this.addr, align 8
  %this1 = load ptr, ptr %this.addr, align 8
  %m_activationState1 = getelementptr inbounds %class.btCollisionObject, ptr %this1, i32 0, i32 16
  %0 = load i32, ptr %m_activationState1, align 8
  ret i32 %0
}

; Function Attrs: mustprogress nounwind uwtable
define linkonce_odr dso_local noundef i32 @_ZNK17btCollisionObject15getInternalTypeEv(ptr noundef nonnull align 8 dereferenceable(372) %this) #1 comdat align 2 {
entry:
  %this.addr = alloca ptr, align 8
  store ptr %this, ptr %this.addr, align 8
  %this1 = load ptr, ptr %this.addr, align 8
  %m_internalType = getelementptr inbounds %class.btCollisionObject, ptr %this1, i32 0, i32 24
  %0 = load i32, ptr %m_internalType, align 8
  ret i32 %0
}

; Function Attrs: mustprogress uwtable
define linkonce_odr dso_local void @_ZN11btMatrix3x3C2Ev(ptr noundef nonnull align 4 dereferenceable(48) %this) unnamed_addr #2 comdat align 2 {
entry:
  %this.addr = alloca ptr, align 8
  store ptr %this, ptr %this.addr, align 8
  %this1 = load ptr, ptr %this.addr, align 8
  %m_el = getelementptr inbounds %class.btMatrix3x3, ptr %this1, i32 0, i32 0
  %array.begin = getelementptr inbounds [3 x %class.btVector3], ptr %m_el, i32 0, i32 0
  %arrayctor.end = getelementptr inbounds %class.btVector3, ptr %array.begin, i64 3
  br label %arrayctor.loop

arrayctor.loop:                                   ; preds = %arrayctor.loop, %entry
  %arrayctor.cur = phi ptr [ %array.begin, %entry ], [ %arrayctor.next, %arrayctor.loop ]
  call void @_ZN9btVector3C2Ev(ptr noundef nonnull align 4 dereferenceable(16) %arrayctor.cur)
  %arrayctor.next = getelementptr inbounds %class.btVector3, ptr %arrayctor.cur, i64 1
  %arrayctor.done = icmp eq ptr %arrayctor.next, %arrayctor.end
  br i1 %arrayctor.done, label %arrayctor.cont, label %arrayctor.loop

arrayctor.cont:                                   ; preds = %arrayctor.loop
  ret void
}

; Function Attrs: mustprogress nounwind uwtable
define linkonce_odr dso_local noundef ptr @_ZN17btCollisionObject19getBroadphaseHandleEv(ptr noundef nonnull align 8 dereferenceable(372) %this) #1 comdat align 2 {
entry:
  %this.addr = alloca ptr, align 8
  store ptr %this, ptr %this.addr, align 8
  %this1 = load ptr, ptr %this.addr, align 8
  %m_broadphaseHandle = getelementptr inbounds %class.btCollisionObject, ptr %this1, i32 0, i32 8
  %0 = load ptr, ptr %m_broadphaseHandle, align 8
  ret ptr %0
}

; Function Attrs: mustprogress nounwind uwtable
define linkonce_odr dso_local noundef ptr @_ZN16btCollisionWorld13getBroadphaseEv(ptr noundef nonnull align 8 dereferenceable(121) %this) #1 comdat align 2 {
entry:
  %this.addr = alloca ptr, align 8
  store ptr %this, ptr %this.addr, align 8
  %this1 = load ptr, ptr %this.addr, align 8
  %m_broadphasePairCache = getelementptr inbounds %class.btCollisionWorld, ptr %this1, i32 0, i32 4
  %0 = load ptr, ptr %m_broadphasePairCache, align 8
  ret ptr %0
}

; Function Attrs: mustprogress nounwind uwtable
define linkonce_odr dso_local noundef nonnull align 4 dereferenceable(64) ptr @_ZN17btCollisionObject17getWorldTransformEv(ptr noundef nonnull align 8 dereferenceable(372) %this) #1 comdat align 2 {
entry:
  %this.addr = alloca ptr, align 8
  store ptr %this, ptr %this.addr, align 8
  %this1 = load ptr, ptr %this.addr, align 8
  %m_worldTransform = getelementptr inbounds %class.btCollisionObject, ptr %this1, i32 0, i32 1
  ret ptr %m_worldTransform
}

; Function Attrs: mustprogress nounwind uwtable
define linkonce_odr dso_local noundef ptr @_ZN17btCollisionObject17getCollisionShapeEv(ptr noundef nonnull align 8 dereferenceable(372) %this) #1 comdat align 2 {
entry:
  %this.addr = alloca ptr, align 8
  store ptr %this, ptr %this.addr, align 8
  %this1 = load ptr, ptr %this.addr, align 8
  %m_collisionShape = getelementptr inbounds %class.btCollisionObject, ptr %this1, i32 0, i32 9
  %0 = load ptr, ptr %m_collisionShape, align 8
  ret ptr %0
}

; Function Attrs: mustprogress nounwind uwtable
define linkonce_odr dso_local void @_ZN9btVector3C2Ev(ptr noundef nonnull align 4 dereferenceable(16) %this) unnamed_addr #1 comdat align 2 {
entry:
  %this.addr = alloca ptr, align 8
  store ptr %this, ptr %this.addr, align 8
  ret void
}

; Function Attrs: mustprogress nounwind uwtable
define linkonce_odr dso_local noundef zeroext i1 @_ZNK17btCollisionObject14isStaticObjectEv(ptr noundef nonnull align 8 dereferenceable(372) %this) #1 comdat align 2 {
entry:
  %this.addr = alloca ptr, align 8
  store ptr %this, ptr %this.addr, align 8
  %this1 = load ptr, ptr %this.addr, align 8
  %m_collisionFlags = getelementptr inbounds %class.btCollisionObject, ptr %this1, i32 0, i32 12
  %0 = load i32, ptr %m_collisionFlags, align 8
  %and = and i32 %0, 1
  %cmp = icmp ne i32 %and, 0
  ret i1 %cmp
}

; Function Attrs: mustprogress uwtable
define linkonce_odr dso_local noundef zeroext i1 @_ZNK17btCollisionObject8isActiveEv(ptr noundef nonnull align 8 dereferenceable(372) %this) #2 comdat align 2 {
entry:
  %this.addr = alloca ptr, align 8
  store ptr %this, ptr %this.addr, align 8
  %this1 = load ptr, ptr %this.addr, align 8
  %call = call noundef i32 @_ZNK17btCollisionObject18getActivationStateEv(ptr noundef nonnull align 8 dereferenceable(372) %this1)
  %cmp = icmp ne i32 %call, 6
  br i1 %cmp, label %land.lhs.true, label %land.end

land.lhs.true:                                    ; preds = %entry
  %call2 = call noundef i32 @_ZNK17btCollisionObject18getActivationStateEv(ptr noundef nonnull align 8 dereferenceable(372) %this1)
  %cmp3 = icmp ne i32 %call2, 2
  br i1 %cmp3, label %land.rhs, label %land.end

land.rhs:                                         ; preds = %land.lhs.true
  %call4 = call noundef i32 @_ZNK17btCollisionObject18getActivationStateEv(ptr noundef nonnull align 8 dereferenceable(372) %this1)
  %cmp5 = icmp ne i32 %call4, 5
  br label %land.end

land.end:                                         ; preds = %land.rhs, %land.lhs.true, %entry
  %0 = phi i1 [ false, %land.lhs.true ], [ false, %entry ], [ %cmp5, %land.rhs ]
  ret i1 %0
}

; Function Attrs: mustprogress uwtable
define linkonce_odr dso_local noundef ptr @_ZN11btRigidBody6upcastEP17btCollisionObject(ptr noundef %colObj) #2 comdat align 2 {
entry:
  %retval = alloca ptr, align 8
  %colObj.addr = alloca ptr, align 8
  store ptr %colObj, ptr %colObj.addr, align 8
  %0 = load ptr, ptr %colObj.addr, align 8
  %call = call noundef i32 @_ZNK17btCollisionObject15getInternalTypeEv(ptr noundef nonnull align 8 dereferenceable(372) %0)
  %and = and i32 %call, 2
  %tobool = icmp ne i32 %and, 0
  br i1 %tobool, label %if.then, label %if.end

if.then:                                          ; preds = %entry
  %1 = load ptr, ptr %colObj.addr, align 8
  store ptr %1, ptr %retval, align 8
  br label %return

if.end:                                           ; preds = %entry
  store ptr null, ptr %retval, align 8
  br label %return

return:                                           ; preds = %if.end, %if.then
  %2 = load ptr, ptr %retval, align 8
  ret ptr %2
}

; Function Attrs: mustprogress nounwind uwtable
define linkonce_odr dso_local noundef nonnull align 8 dereferenceable(8) ptr @_ZN20btAlignedObjectArrayIP17btCollisionObjectEixEi(ptr noundef nonnull align 8 dereferenceable(25) %this, i32 noundef %n) #1 comdat align 2 {
entry:
  %this.addr = alloca ptr, align 8
  %n.addr = alloca i32, align 4
  store ptr %this, ptr %this.addr, align 8
  store i32 %n, ptr %n.addr, align 4
  %this1 = load ptr, ptr %this.addr, align 8
  %m_data = getelementptr inbounds %class.btAlignedObjectArray, ptr %this1, i32 0, i32 5
  %0 = load ptr, ptr %m_data, align 8
  %1 = load i32, ptr %n.addr, align 4
  %idxprom = sext i32 %1 to i64
  %arrayidx = getelementptr inbounds ptr, ptr %0, i64 %idxprom
  ret ptr %arrayidx
}

; Function Attrs: mustprogress nounwind uwtable
define linkonce_odr dso_local noundef i32 @_ZNK20btAlignedObjectArrayIP17btCollisionObjectE4sizeEv(ptr noundef nonnull align 8 dereferenceable(25) %this) #1 comdat align 2 {
entry:
  %this.addr = alloca ptr, align 8
  store ptr %this, ptr %this.addr, align 8
  %this1 = load ptr, ptr %this.addr, align 8
  %m_size = getelementptr inbounds %class.btAlignedObjectArray, ptr %this1, i32 0, i32 2
  %0 = load i32, ptr %m_size, align 4
  ret i32 %0
}

; Function Attrs: mustprogress uwtable
define linkonce_odr dso_local void @_ZN11btTransformC2Ev(ptr noundef nonnull align 4 dereferenceable(64) %this) unnamed_addr #2 comdat align 2 {
entry:
  %this.addr = alloca ptr, align 8
  store ptr %this, ptr %this.addr, align 8
  %this1 = load ptr, ptr %this.addr, align 8
  %m_basis = getelementptr inbounds %class.btTransform, ptr %this1, i32 0, i32 0
  call void @_ZN11btMatrix3x3C2Ev(ptr noundef nonnull align 4 dereferenceable(48) %m_basis)
  %m_origin = getelementptr inbounds %class.btTransform, ptr %this1, i32 0, i32 1
  call void @_ZN9btVector3C2Ev(ptr noundef nonnull align 4 dereferenceable(16) %m_origin)
  ret void
}

; Function Attrs: mustprogress uwtable
define dso_local void @_ZN21btSimpleDynamicsWorld11updateAabbsEv(ptr noundef nonnull align 8 dereferenceable(308) %this) unnamed_addr #2 align 2 {
entry:
  %this.addr = alloca ptr, align 8
  %predictedTrans = alloca %class.btTransform, align 4
  %i = alloca i32, align 4
  %colObj = alloca ptr, align 8
  %body = alloca ptr, align 8
  %minAabb = alloca %class.btVector3, align 4
  %maxAabb = alloca %class.btVector3, align 4
  %bp = alloca ptr, align 8
  store ptr %this, ptr %this.addr, align 8
  %this1 = load ptr, ptr %this.addr, align 8
  call void @_ZN11btTransformC2Ev(ptr noundef nonnull align 4 dereferenceable(64) %predictedTrans)
  store i32 0, ptr %i, align 4
  br label %for.cond

for.cond:                                         ; preds = %for.inc, %entry
  %0 = load i32, ptr %i, align 4
  %m_collisionObjects = getelementptr inbounds %class.btCollisionWorld, ptr %this1, i32 0, i32 1
  %call = call noundef i32 @_ZNK20btAlignedObjectArrayIP17btCollisionObjectE4sizeEv(ptr noundef nonnull align 8 dereferenceable(25) %m_collisionObjects)
  %cmp = icmp slt i32 %0, %call
  br i1 %cmp, label %for.body, label %for.end

for.body:                                         ; preds = %for.cond
  %m_collisionObjects2 = getelementptr inbounds %class.btCollisionWorld, ptr %this1, i32 0, i32 1
  %1 = load i32, ptr %i, align 4
  %call3 = call noundef nonnull align 8 dereferenceable(8) ptr @_ZN20btAlignedObjectArrayIP17btCollisionObjectEixEi(ptr noundef nonnull align 8 dereferenceable(25) %m_collisionObjects2, i32 noundef %1)
  %2 = load ptr, ptr %call3, align 8
  store ptr %2, ptr %colObj, align 8
  %3 = load ptr, ptr %colObj, align 8
  %call4 = call noundef ptr @_ZN11btRigidBody6upcastEP17btCollisionObject(ptr noundef %3)
  store ptr %call4, ptr %body, align 8
  %4 = load ptr, ptr %body, align 8
  %tobool = icmp ne ptr %4, null
  br i1 %tobool, label %if.then, label %if.end14

if.then:                                          ; preds = %for.body
  %5 = load ptr, ptr %body, align 8
  %call5 = call noundef zeroext i1 @_ZNK17btCollisionObject8isActiveEv(ptr noundef nonnull align 8 dereferenceable(372) %5)
  br i1 %call5, label %land.lhs.true, label %if.end

land.lhs.true:                                    ; preds = %if.then
  %6 = load ptr, ptr %body, align 8
  %call6 = call noundef zeroext i1 @_ZNK17btCollisionObject14isStaticObjectEv(ptr noundef nonnull align 8 dereferenceable(372) %6)
  br i1 %call6, label %if.end, label %if.then7

if.then7:                                         ; preds = %land.lhs.true
  call void @_ZN9btVector3C2Ev(ptr noundef nonnull align 4 dereferenceable(16) %minAabb)
  call void @_ZN9btVector3C2Ev(ptr noundef nonnull align 4 dereferenceable(16) %maxAabb)
  %7 = load ptr, ptr %colObj, align 8
  %call8 = call noundef ptr @_ZN17btCollisionObject17getCollisionShapeEv(ptr noundef nonnull align 8 dereferenceable(372) %7)
  %8 = load ptr, ptr %colObj, align 8
  %call9 = call noundef nonnull align 4 dereferenceable(64) ptr @_ZN17btCollisionObject17getWorldTransformEv(ptr noundef nonnull align 8 dereferenceable(372) %8)
  %vtable = load ptr, ptr %call8, align 8
  %vfn = getelementptr inbounds ptr, ptr %vtable, i64 2
  %9 = load ptr, ptr %vfn, align 8
  call void %9(ptr noundef nonnull align 8 dereferenceable(32) %call8, ptr noundef nonnull align 4 dereferenceable(64) %call9, ptr noundef nonnull align 4 dereferenceable(16) %minAabb, ptr noundef nonnull align 4 dereferenceable(16) %maxAabb)
  %call10 = call noundef ptr @_ZN16btCollisionWorld13getBroadphaseEv(ptr noundef nonnull align 8 dereferenceable(121) %this1)
  store ptr %call10, ptr %bp, align 8
  %10 = load ptr, ptr %bp, align 8
  %11 = load ptr, ptr %body, align 8
  %call11 = call noundef ptr @_ZN17btCollisionObject19getBroadphaseHandleEv(ptr noundef nonnull align 8 dereferenceable(372) %11)
  %m_dispatcher1 = getelementptr inbounds %class.btCollisionWorld, ptr %this1, i32 0, i32 2
  %12 = load ptr, ptr %m_dispatcher1, align 8
  %vtable12 = load ptr, ptr %10, align 8
  %vfn13 = getelementptr inbounds ptr, ptr %vtable12, i64 4
  %13 = load ptr, ptr %vfn13, align 8
  call void %13(ptr noundef nonnull align 8 dereferenceable(8) %10, ptr noundef %call11, ptr noundef nonnull align 4 dereferenceable(16) %minAabb, ptr noundef nonnull align 4 dereferenceable(16) %maxAabb, ptr noundef %12)
  br label %if.end

if.end:                                           ; preds = %if.then7, %land.lhs.true, %if.then
  br label %if.end14

if.end14:                                         ; preds = %if.end, %for.body
  br label %for.inc

for.inc:                                          ; preds = %if.end14
  %14 = load i32, ptr %i, align 4
  %inc = add nsw i32 %14, 1
  store i32 %inc, ptr %i, align 4
  br label %for.cond, !llvm.loop !10

for.end:                                          ; preds = %for.cond
  ret void
}