; Function Attrs: mustprogress uwtable
define dso_local void @_ZN21btSimpleDynamicsWorld11updateAabbsEv(ptr nocapture noundef nonnull readonly align 8 dereferenceable(308) %this) unnamed_addr #1 align 2 {
entry:
  %minAabb = alloca %class.btVector3, align 4
  %maxAabb = alloca %class.btVector3, align 4
  %m_size.i = getelementptr inbounds i8, ptr %this, i64 12
  %0 = load i32, ptr %m_size.i, align 4
  %cmp10 = icmp sgt i32 %0, 0
  br i1 %cmp10, label %for.body.lr.ph, label %for.end

for.body.lr.ph:                                   ; preds = %entry
  %m_data.i = getelementptr inbounds i8, ptr %this, i64 24
  %m_broadphasePairCache.i = getelementptr inbounds i8, ptr %this, i64 104
  %m_dispatcher1 = getelementptr inbounds i8, ptr %this, i64 40
  br label %for.body

for.body:                                         ; preds = %for.body.lr.ph, %for.inc
  %1 = phi i32 [ %0, %for.body.lr.ph ], [ %13, %for.inc ]
  %indvars.iv = phi i64 [ 0, %for.body.lr.ph ], [ %indvars.iv.next, %for.inc ]
  %2 = load ptr, ptr %m_data.i, align 8
  %arrayidx.i = getelementptr inbounds ptr, ptr %2, i64 %indvars.iv
  %3 = load ptr, ptr %arrayidx.i, align 8
  %m_internalType.i.i = getelementptr inbounds i8, ptr %3, i64 272
  %4 = load i32, ptr %m_internalType.i.i, align 8
  %and.i = and i32 %4, 2
  %tobool.not.i = icmp eq i32 %and.i, 0
  %tobool.not9 = icmp eq ptr %3, null
  %tobool.not = or i1 %tobool.not9, %tobool.not.i
  br i1 %tobool.not, label %for.inc, label %if.then

if.then:                                          ; preds = %for.body
  %m_activationState1.i.i = getelementptr inbounds i8, ptr %3, i64 240
  %5 = load i32, ptr %m_activationState1.i.i, align 8
  switch i32 %5, label %land.lhs.true [
    i32 6, label %for.inc
    i32 2, label %for.inc
    i32 5, label %for.inc
  ]

land.lhs.true:                                    ; preds = %if.then
  %m_collisionFlags.i = getelementptr inbounds i8, ptr %3, i64 224
  %6 = load i32, ptr %m_collisionFlags.i, align 8
  %and.i8 = and i32 %6, 1
  %cmp.i.not = icmp eq i32 %and.i8, 0
  br i1 %cmp.i.not, label %if.then7, label %for.inc

if.then7:                                         ; preds = %land.lhs.true
  %m_collisionShape.i = getelementptr inbounds i8, ptr %3, i64 200
  %7 = load ptr, ptr %m_collisionShape.i, align 8
  %m_worldTransform.i = getelementptr inbounds i8, ptr %3, i64 8
  %vtable = load ptr, ptr %7, align 8
  %vfn = getelementptr inbounds i8, ptr %vtable, i64 16
  %8 = load ptr, ptr %vfn, align 8
  call void %8(ptr noundef nonnull align 8 dereferenceable(32) %7, ptr noundef nonnull align 4 dereferenceable(64) %m_worldTransform.i, ptr noundef nonnull align 4 dereferenceable(16) %minAabb, ptr noundef nonnull align 4 dereferenceable(16) %maxAabb)
  %9 = load ptr, ptr %m_broadphasePairCache.i, align 8
  %m_broadphaseHandle.i = getelementptr inbounds i8, ptr %3, i64 192
  %10 = load ptr, ptr %m_broadphaseHandle.i, align 8
  %11 = load ptr, ptr %m_dispatcher1, align 8
  %vtable12 = load ptr, ptr %9, align 8
  %vfn13 = getelementptr inbounds i8, ptr %vtable12, i64 32
  %12 = load ptr, ptr %vfn13, align 8
  call void %12(ptr noundef nonnull align 8 dereferenceable(8) %9, ptr noundef %10, ptr noundef nonnull align 4 dereferenceable(16) %minAabb, ptr noundef nonnull align 4 dereferenceable(16) %maxAabb, ptr noundef %11)
  %.pre = load i32, ptr %m_size.i, align 4
  br label %for.inc

for.inc:                                          ; preds = %if.then, %if.then, %if.then, %for.body, %if.then7, %land.lhs.true
  %13 = phi i32 [ %1, %if.then ], [ %1, %if.then ], [ %1, %if.then ], [ %1, %for.body ], [ %.pre, %if.then7 ], [ %1, %land.lhs.true ]
  %indvars.iv.next = add nuw nsw i64 %indvars.iv, 1
  %14 = sext i32 %13 to i64
  %cmp = icmp slt i64 %indvars.iv.next, %14
  br i1 %cmp, label %for.body, label %for.end, !llvm.loop !10

for.end:                                          ; preds = %for.inc, %entry
  ret void
}